target datalayout = "e-m:e-p270:32:32-p271:32:32-p272:64:64-i64:64-i128:128-f80:128-n8:16:32:64-S128"
target triple = "x86_64-pc-linux-gnu"

@.str.2 = private unnamed_addr constant [37 x i8] c"-----BEGIN CERTIFICATE REQUEST-----\0A\00", align 1
@.str.3 = private unnamed_addr constant [35 x i8] c"-----END CERTIFICATE REQUEST-----\0A\00", align 1

; Function Attrs: nounwind uwtable
define hidden i32 @mbedtls_x509write_csr_pem(ptr noundef %0, ptr noundef %1, i64 noundef %2, ptr noundef %3, ptr noundef %4) #0 {
  %6 = alloca i32, align 4
  %7 = alloca ptr, align 8
  %8 = alloca ptr, align 8
  %9 = alloca i64, align 8
  %10 = alloca ptr, align 8
  %11 = alloca ptr, align 8
  %12 = alloca i32, align 4
  %13 = alloca i64, align 8
  %14 = alloca i32, align 4
  store ptr %0, ptr %7, align 8, !tbaa !3
  store ptr %1, ptr %8, align 8, !tbaa !16
  store i64 %2, ptr %9, align 8, !tbaa !18
  store ptr %3, ptr %10, align 8, !tbaa !23
  store ptr %4, ptr %11, align 8, !tbaa !23
  call void @llvm.lifetime.start.p0(i64 4, ptr %12) #7
  store i32 -110, ptr %12, align 4, !tbaa !8
  call void @llvm.lifetime.start.p0(i64 8, ptr %13) #7
  store i64 0, ptr %13, align 8, !tbaa !18
  %15 = load ptr, ptr %7, align 8, !tbaa !3
  %16 = load ptr, ptr %8, align 8, !tbaa !16
  %17 = load i64, ptr %9, align 8, !tbaa !18
  %18 = load ptr, ptr %10, align 8, !tbaa !23
  %19 = load ptr, ptr %11, align 8, !tbaa !23
  %20 = call i32 @mbedtls_x509write_csr_der(ptr noundef %15, ptr noundef %16, i64 noundef %17, ptr noundef %18, ptr noundef %19)
  store i32 %20, ptr %12, align 4, !tbaa !8
  %21 = icmp slt i32 %20, 0
  br i1 %21, label %22, label %24

22:                                               ; preds = %5
  %23 = load i32, ptr %12, align 4, !tbaa !8
  store i32 %23, ptr %6, align 4
  store i32 1, ptr %14, align 4
  br label %41

24:                                               ; preds = %5
  %25 = load ptr, ptr %8, align 8, !tbaa !16
  %26 = load i64, ptr %9, align 8, !tbaa !18
  %27 = getelementptr inbounds nuw i8, ptr %25, i64 %26
  %28 = load i32, ptr %12, align 4, !tbaa !8
  %29 = sext i32 %28 to i64
  %30 = sub i64 0, %29
  %31 = getelementptr inbounds i8, ptr %27, i64 %30
  %32 = load i32, ptr %12, align 4, !tbaa !8
  %33 = sext i32 %32 to i64
  %34 = load ptr, ptr %8, align 8, !tbaa !16
  %35 = load i64, ptr %9, align 8, !tbaa !18
  %36 = call i32 @mbedtls_pem_write_buffer(ptr noundef @.str.2, ptr noundef @.str.3, ptr noundef %31, i64 noundef %33, ptr noundef %34, i64 noundef %35, ptr noundef %13)
  store i32 %36, ptr %12, align 4, !tbaa !8
  %37 = icmp ne i32 %36, 0
  br i1 %37, label %38, label %40

38:                                               ; preds = %24
  %39 = load i32, ptr %12, align 4, !tbaa !8
  store i32 %39, ptr %6, align 4
  store i32 1, ptr %14, align 4
  br label %41

40:                                               ; preds = %24
  store i32 0, ptr %6, align 4
  store i32 1, ptr %14, align 4
  br label %41

41:                                               ; preds = %40, %38, %22
  call void @llvm.lifetime.end.p0(i64 8, ptr %13) #7
  call void @llvm.lifetime.end.p0(i64 4, ptr %12) #7
  %42 = load i32, ptr %6, align 4
  ret i32 %42
}